target datalayout = "e-m:e-p270:32:32-p271:32:32-p272:64:64-i64:64-i128:128-f80:128-n8:16:32:64-S128"
target triple = "x86_64-pc-linux-gnu"

%struct.tm = type { i32, i32, i32, i32, i32, i32, i32, i32, i32, i64, ptr }
%struct.asn1_string_st = type { i32, i32, ptr, i64 }

@.str.1 = private unnamed_addr constant [26 x i8] c"%04d%02d%02d%02d%02d%02dZ\00", align 1
@.str.2 = private unnamed_addr constant [26 x i8] c"%02d%02d%02d%02d%02d%02dZ\00", align 1

; Function Attrs: nounwind uwtable
define internal i32 @is_utc(i32 noundef %0) #0 {
  %2 = alloca i32, align 4
  %3 = alloca i32, align 4
  store i32 %0, ptr %3, align 4, !tbaa !17
  %4 = load i32, ptr %3, align 4, !tbaa !17
  %5 = icmp sle i32 50, %4
  br i1 %5, label %6, label %10

6:                                                ; preds = %1
  %7 = load i32, ptr %3, align 4, !tbaa !17
  %8 = icmp sle i32 %7, 149
  br i1 %8, label %9, label %10

9:                                                ; preds = %6
  store i32 1, ptr %2, align 4
  br label %11

10:                                               ; preds = %6, %1
  store i32 0, ptr %2, align 4
  br label %11

11:                                               ; preds = %10, %9
  %12 = load i32, ptr %2, align 4
  ret i32 %12
}

; Function Attrs: nounwind uwtable
define dso_local ptr @ossl_asn1_time_from_tm(ptr noundef %0, ptr noundef %1, i32 noundef %2) #0 {
  %4 = alloca ptr, align 8
  %5 = alloca ptr, align 8
  %6 = alloca ptr, align 8
  %7 = alloca i32, align 4
  %8 = alloca ptr, align 8
  %9 = alloca ptr, align 8
  %10 = alloca i64, align 8
  %11 = alloca i32, align 4
  store ptr %0, ptr %5, align 8, !tbaa !13
  store ptr %1, ptr %6, align 8, !tbaa !15
  store i32 %2, ptr %7, align 4, !tbaa !17
  call void @llvm.lifetime.start.p0(i64 8, ptr %8) #7
  call void @llvm.lifetime.start.p0(i64 8, ptr %9) #7
  store ptr null, ptr %9, align 8, !tbaa !13
  call void @llvm.lifetime.start.p0(i64 8, ptr %10) #7
  store i64 20, ptr %10, align 8, !tbaa !11
  %12 = load i32, ptr %7, align 4, !tbaa !17
  %13 = icmp eq i32 %12, -1
  br i1 %13, label %14, label %23

14:                                               ; preds = %3
  %15 = load ptr, ptr %6, align 8, !tbaa !15
  %16 = getelementptr inbounds nuw %struct.tm, ptr %15, i32 0, i32 5
  %17 = load i32, ptr %16, align 4, !tbaa !27
  %18 = call i32 @is_utc(i32 noundef %17)
  %19 = icmp ne i32 %18, 0
  br i1 %19, label %20, label %21

20:                                               ; preds = %14
  store i32 23, ptr %7, align 4, !tbaa !17
  br label %22

21:                                               ; preds = %14
  store i32 24, ptr %7, align 4, !tbaa !17
  br label %22

22:                                               ; preds = %21, %20
  br label %40

23:                                               ; preds = %3
  %24 = load i32, ptr %7, align 4, !tbaa !17
  %25 = icmp eq i32 %24, 23
  br i1 %25, label %26, label %34

26:                                               ; preds = %23
  %27 = load ptr, ptr %6, align 8, !tbaa !15
  %28 = getelementptr inbounds nuw %struct.tm, ptr %27, i32 0, i32 5
  %29 = load i32, ptr %28, align 4, !tbaa !27
  %30 = call i32 @is_utc(i32 noundef %29)
  %31 = icmp ne i32 %30, 0
  br i1 %31, label %33, label %32

32:                                               ; preds = %26
  br label %129

33:                                               ; preds = %26
  br label %39

34:                                               ; preds = %23
  %35 = load i32, ptr %7, align 4, !tbaa !17
  %36 = icmp ne i32 %35, 24
  br i1 %36, label %37, label %38

37:                                               ; preds = %34
  br label %129

38:                                               ; preds = %34
  br label %39

39:                                               ; preds = %38, %33
  br label %40

40:                                               ; preds = %39, %22
  %41 = load ptr, ptr %5, align 8, !tbaa !13
  %42 = icmp eq ptr %41, null
  br i1 %42, label %43, label %45

43:                                               ; preds = %40
  %44 = call ptr @ASN1_STRING_new()
  store ptr %44, ptr %9, align 8, !tbaa !13
  br label %47

45:                                               ; preds = %40
  %46 = load ptr, ptr %5, align 8, !tbaa !13
  store ptr %46, ptr %9, align 8, !tbaa !13
  br label %47

47:                                               ; preds = %45, %43
  %48 = load ptr, ptr %9, align 8, !tbaa !13
  %49 = icmp eq ptr %48, null
  br i1 %49, label %50, label %51

50:                                               ; preds = %47
  store ptr null, ptr %4, align 8
  store i32 1, ptr %11, align 4
  br label %136

51:                                               ; preds = %47
  %52 = load ptr, ptr %9, align 8, !tbaa !13
  %53 = call i32 @ASN1_STRING_set(ptr noundef %52, ptr noundef null, i32 noundef 20)
  %54 = icmp ne i32 %53, 0
  br i1 %54, label %56, label %55

55:                                               ; preds = %51
  br label %129

56:                                               ; preds = %51
  %57 = load i32, ptr %7, align 4, !tbaa !17
  %58 = load ptr, ptr %9, align 8, !tbaa !13
  %59 = getelementptr inbounds nuw %struct.asn1_string_st, ptr %58, i32 0, i32 1
  store i32 %57, ptr %59, align 4, !tbaa !20
  %60 = load ptr, ptr %9, align 8, !tbaa !13
  %61 = getelementptr inbounds nuw %struct.asn1_string_st, ptr %60, i32 0, i32 2
  %62 = load ptr, ptr %61, align 8, !tbaa !25
  store ptr %62, ptr %8, align 8, !tbaa !26
  %63 = load ptr, ptr %6, align 8, !tbaa !15
  %64 = getelementptr inbounds nuw %struct.tm, ptr %63, i32 0, i32 4
  %65 = load i32, ptr %64, align 8, !tbaa !29
  %66 = icmp sgt i32 %65, 2147483646
  br i1 %66, label %67, label %68

67:                                               ; preds = %56
  br label %129

68:                                               ; preds = %56
  %69 = load i32, ptr %7, align 4, !tbaa !17
  %70 = icmp eq i32 %69, 24
  br i1 %70, label %71, label %102

71:                                               ; preds = %68
  %72 = load ptr, ptr %6, align 8, !tbaa !15
  %73 = getelementptr inbounds nuw %struct.tm, ptr %72, i32 0, i32 5
  %74 = load i32, ptr %73, align 4, !tbaa !27
  %75 = icmp sgt i32 %74, 2147481747
  br i1 %75, label %76, label %77

76:                                               ; preds = %71
  br label %129

77:                                               ; preds = %71
  %78 = load ptr, ptr %8, align 8, !tbaa !26
  %79 = load ptr, ptr %6, align 8, !tbaa !15
  %80 = getelementptr inbounds nuw %struct.tm, ptr %79, i32 0, i32 5
  %81 = load i32, ptr %80, align 4, !tbaa !27
  %82 = add nsw i32 %81, 1900
  %83 = load ptr, ptr %6, align 8, !tbaa !15
  %84 = getelementptr inbounds nuw %struct.tm, ptr %83, i32 0, i32 4
  %85 = load i32, ptr %84, align 8, !tbaa !29
  %86 = add nsw i32 %85, 1
  %87 = load ptr, ptr %6, align 8, !tbaa !15
  %88 = getelementptr inbounds nuw %struct.tm, ptr %87, i32 0, i32 3
  %89 = load i32, ptr %88, align 4, !tbaa !30
  %90 = load ptr, ptr %6, align 8, !tbaa !15
  %91 = getelementptr inbounds nuw %struct.tm, ptr %90, i32 0, i32 2
  %92 = load i32, ptr %91, align 8, !tbaa !31
  %93 = load ptr, ptr %6, align 8, !tbaa !15
  %94 = getelementptr inbounds nuw %struct.tm, ptr %93, i32 0, i32 1
  %95 = load i32, ptr %94, align 4, !tbaa !32
  %96 = load ptr, ptr %6, align 8, !tbaa !15
  %97 = getelementptr inbounds nuw %struct.tm, ptr %96, i32 0, i32 0
  %98 = load i32, ptr %97, align 8, !tbaa !33
  %99 = call i32 (ptr, i64, ptr, ...) @BIO_snprintf(ptr noundef %78, i64 noundef 20, ptr noundef @.str.1, i32 noundef %82, i32 noundef %86, i32 noundef %89, i32 noundef %92, i32 noundef %95, i32 noundef %98)
  %100 = load ptr, ptr %9, align 8, !tbaa !13
  %101 = getelementptr inbounds nuw %struct.asn1_string_st, ptr %100, i32 0, i32 0
  store i32 %99, ptr %101, align 8, !tbaa !24
  br label %127

102:                                              ; preds = %68
  %103 = load ptr, ptr %8, align 8, !tbaa !26
  %104 = load ptr, ptr %6, align 8, !tbaa !15
  %105 = getelementptr inbounds nuw %struct.tm, ptr %104, i32 0, i32 5
  %106 = load i32, ptr %105, align 4, !tbaa !27
  %107 = srem i32 %106, 100
  %108 = load ptr, ptr %6, align 8, !tbaa !15
  %109 = getelementptr inbounds nuw %struct.tm, ptr %108, i32 0, i32 4
  %110 = load i32, ptr %109, align 8, !tbaa !29
  %111 = add nsw i32 %110, 1
  %112 = load ptr, ptr %6, align 8, !tbaa !15
  %113 = getelementptr inbounds nuw %struct.tm, ptr %112, i32 0, i32 3
  %114 = load i32, ptr %113, align 4, !tbaa !30
  %115 = load ptr, ptr %6, align 8, !tbaa !15
  %116 = getelementptr inbounds nuw %struct.tm, ptr %115, i32 0, i32 2
  %117 = load i32, ptr %116, align 8, !tbaa !31
  %118 = load ptr, ptr %6, align 8, !tbaa !15
  %119 = getelementptr inbounds nuw %struct.tm, ptr %118, i32 0, i32 1
  %120 = load i32, ptr %119, align 4, !tbaa !32
  %121 = load ptr, ptr %6, align 8, !tbaa !15
  %122 = getelementptr inbounds nuw %struct.tm, ptr %121, i32 0, i32 0
  %123 = load i32, ptr %122, align 8, !tbaa !33
  %124 = call i32 (ptr, i64, ptr, ...) @BIO_snprintf(ptr noundef %103, i64 noundef 20, ptr noundef @.str.2, i32 noundef %107, i32 noundef %111, i32 noundef %114, i32 noundef %117, i32 noundef %120, i32 noundef %123)
  %125 = load ptr, ptr %9, align 8, !tbaa !13
  %126 = getelementptr inbounds nuw %struct.asn1_string_st, ptr %125, i32 0, i32 0
  store i32 %124, ptr %126, align 8, !tbaa !24
  br label %127

127:                                              ; preds = %102, %77
  %128 = load ptr, ptr %9, align 8, !tbaa !13
  store ptr %128, ptr %4, align 8
  store i32 1, ptr %11, align 4
  br label %136

129:                                              ; preds = %76, %67, %55, %37, %32
  %130 = load ptr, ptr %9, align 8, !tbaa !13
  %131 = load ptr, ptr %5, align 8, !tbaa !13
  %132 = icmp ne ptr %130, %131
  br i1 %132, label %133, label %135

133:                                              ; preds = %129
  %134 = load ptr, ptr %9, align 8, !tbaa !13
  call void @ASN1_STRING_free(ptr noundef %134)
  br label %135

135:                                              ; preds = %133, %129
  store ptr null, ptr %4, align 8
  store i32 1, ptr %11, align 4
  br label %136

136:                                              ; preds = %135, %127, %50
  call void @llvm.lifetime.end.p0(i64 8, ptr %10) #7
  call void @llvm.lifetime.end.p0(i64 8, ptr %9) #7
  call void @llvm.lifetime.end.p0(i64 8, ptr %8) #7
  %137 = load ptr, ptr %4, align 8
  ret ptr %137
}

; Function Attrs: nounwind uwtable
define dso_local i32 @ASN1_TIME_to_tm(ptr noundef %0, ptr noundef %1) #0 {
  %3 = alloca i32, align 4
  %4 = alloca ptr, align 8
  %5 = alloca ptr, align 8
  %6 = alloca i64, align 8
  %7 = alloca i32, align 4
  store ptr %0, ptr %4, align 8, !tbaa !13
  store ptr %1, ptr %5, align 8, !tbaa !15
  %8 = load ptr, ptr %4, align 8, !tbaa !13
  %9 = icmp eq ptr %8, null
  br i1 %9, label %10, label %19

10:                                               ; preds = %2
  call void @llvm.lifetime.start.p0(i64 8, ptr %6) #7
  %11 = call i64 @time(ptr noundef %6) #7
  %12 = load ptr, ptr %5, align 8, !tbaa !15
  call void @llvm.memset.p0.i64(ptr align 8 %12, i8 0, i64 56, i1 false)
  %13 = load ptr, ptr %5, align 8, !tbaa !15
  %14 = call ptr @OPENSSL_gmtime(ptr noundef %6, ptr noundef %13)
  %15 = icmp ne ptr %14, null
  br i1 %15, label %16, label %17

16:                                               ; preds = %10
  store i32 1, ptr %3, align 4
  store i32 1, ptr %7, align 4
  br label %18

17:                                               ; preds = %10
  store i32 0, ptr %3, align 4
  store i32 1, ptr %7, align 4
  br label %18

18:                                               ; preds = %17, %16
  call void @llvm.lifetime.end.p0(i64 8, ptr %6) #7
  br label %23

19:                                               ; preds = %2
  %20 = load ptr, ptr %5, align 8, !tbaa !15
  %21 = load ptr, ptr %4, align 8, !tbaa !13
  %22 = call i32 @ossl_asn1_time_to_tm(ptr noundef %20, ptr noundef %21)
  store i32 %22, ptr %3, align 4
  br label %23

23:                                               ; preds = %19, %18
  %24 = load i32, ptr %3, align 4
  ret i32 %24
}

; Function Attrs: nounwind uwtable
define dso_local ptr @ASN1_TIME_to_generalizedtime(ptr noundef %0, ptr noundef %1) #0 {
  %3 = alloca ptr, align 8
  %4 = alloca ptr, align 8
  %5 = alloca ptr, align 8
  %6 = alloca ptr, align 8
  %7 = alloca %struct.tm, align 8
  %8 = alloca i32, align 4
  store ptr %0, ptr %4, align 8, !tbaa !13
  store ptr %1, ptr %5, align 8, !tbaa !4
  call void @llvm.lifetime.start.p0(i64 8, ptr %6) #7
  store ptr null, ptr %6, align 8, !tbaa !13
  call void @llvm.lifetime.start.p0(i64 56, ptr %7) #7
  %9 = load ptr, ptr %4, align 8, !tbaa !13
  %10 = call i32 @ASN1_TIME_to_tm(ptr noundef %9, ptr noundef %7)
  %11 = icmp ne i32 %10, 0
  br i1 %11, label %13, label %12

12:                                               ; preds = %2
  store ptr null, ptr %3, align 8
  store i32 1, ptr %8, align 4
  br label %32

13:                                               ; preds = %2
  %14 = load ptr, ptr %5, align 8, !tbaa !4
  %15 = icmp ne ptr %14, null
  br i1 %15, label %16, label %19

16:                                               ; preds = %13
  %17 = load ptr, ptr %5, align 8, !tbaa !4
  %18 = load ptr, ptr %17, align 8, !tbaa !13
  store ptr %18, ptr %6, align 8, !tbaa !13
  br label %19

19:                                               ; preds = %16, %13
  %20 = load ptr, ptr %6, align 8, !tbaa !13
  %21 = call ptr @ossl_asn1_time_from_tm(ptr noundef %20, ptr noundef %7, i32 noundef 24)
  store ptr %21, ptr %6, align 8, !tbaa !13
  %22 = load ptr, ptr %5, align 8, !tbaa !4
  %23 = icmp ne ptr %22, null
  br i1 %23, label %24, label %30

24:                                               ; preds = %19
  %25 = load ptr, ptr %6, align 8, !tbaa !13
  %26 = icmp ne ptr %25, null
  br i1 %26, label %27, label %30

27:                                               ; preds = %24
  %28 = load ptr, ptr %6, align 8, !tbaa !13
  %29 = load ptr, ptr %5, align 8, !tbaa !4
  store ptr %28, ptr %29, align 8, !tbaa !13
  br label %30

30:                                               ; preds = %27, %24, %19
  %31 = load ptr, ptr %6, align 8, !tbaa !13
  store ptr %31, ptr %3, align 8
  store i32 1, ptr %8, align 4
  br label %32

32:                                               ; preds = %30, %12
  call void @llvm.lifetime.end.p0(i64 56, ptr %7) #7
  call void @llvm.lifetime.end.p0(i64 8, ptr %6) #7
  %33 = load ptr, ptr %3, align 8
  ret ptr %33
}