; Function Attrs: nounwind uwtable
define dso_local noundef ptr @ASN1_TIME_to_generalizedtime(ptr noundef readonly captures(address_is_null) %0, ptr noundef captures(address_is_null) %1) local_unnamed_addr #1 {
  %3 = alloca i64, align 8
  %4 = alloca %struct.tm, align 8
  call void @llvm.lifetime.start.p0(i64 56, ptr nonnull %4) #8
  %5 = icmp eq ptr %0, null
  br i1 %5, label %6, label %ASN1_TIME_to_tm.exit

6:                                                ; preds = %2
  call void @llvm.lifetime.start.p0(i64 8, ptr nonnull %3) #8
  %7 = call i64 @time(ptr noundef nonnull %3) #8
  call void @llvm.memset.p0.i64(ptr noundef nonnull align 8 dereferenceable(56) %4, i8 0, i64 56, i1 false)
  %8 = call ptr @OPENSSL_gmtime(ptr noundef nonnull %3, ptr noundef nonnull %4) #8
  %.not.i.not = icmp eq ptr %8, null
  call void @llvm.lifetime.end.p0(i64 8, ptr nonnull %3) #8
  br i1 %.not.i.not, label %ossl_asn1_time_from_tm.exit.thread, label %11

ASN1_TIME_to_tm.exit:                             ; preds = %2
  %9 = call i32 @ossl_asn1_time_to_tm(ptr noundef nonnull %4, ptr noundef nonnull readonly %0)
  %10 = icmp eq i32 %9, 0
  br i1 %10, label %ossl_asn1_time_from_tm.exit.thread, label %11

11:                                               ; preds = %6, %ASN1_TIME_to_tm.exit
  %.not = icmp eq ptr %1, null
  br i1 %.not, label %.thread, label %12

12:                                               ; preds = %11
  %13 = load ptr, ptr %1, align 8, !tbaa !33
  %14 = icmp eq ptr %13, null
  br i1 %14, label %.thread, label %.thread.i

.thread:                                          ; preds = %11, %12
  %15 = call ptr @ASN1_STRING_new() #8
  %16 = icmp eq ptr %15, null
  br i1 %16, label %ossl_asn1_time_from_tm.exit.thread, label %.thread.i

.thread.i:                                        ; preds = %.thread, %12
  %.015 = phi ptr [ null, %.thread ], [ %13, %12 ]
  %.149.i = phi ptr [ %15, %.thread ], [ %13, %12 ]
  %17 = call i32 @ASN1_STRING_set(ptr noundef nonnull %.149.i, ptr noundef null, i32 noundef 20) #8
  %.not43.i = icmp eq i32 %17, 0
  br i1 %.not43.i, label %29, label %18

18:                                               ; preds = %.thread.i
  %19 = getelementptr inbounds nuw i8, ptr %.149.i, i64 4
  store i32 24, ptr %19, align 4, !tbaa !4
  %20 = getelementptr inbounds nuw i8, ptr %.149.i, i64 8
  %21 = load ptr, ptr %20, align 8, !tbaa !14
  %22 = getelementptr inbounds nuw i8, ptr %4, i64 16
  %23 = load i32, ptr %22, align 8, !tbaa !19
  %24 = icmp eq i32 %23, 2147483647
  br i1 %24, label %29, label %25

25:                                               ; preds = %18
  %26 = getelementptr inbounds nuw i8, ptr %4, i64 20
  %27 = load i32, ptr %26, align 4, !tbaa !17
  %28 = icmp sgt i32 %27, 2147481747
  br i1 %28, label %29, label %ossl_asn1_time_from_tm.exit

29:                                               ; preds = %25, %18, %.thread.i
  %.not44.i = icmp eq ptr %.149.i, %.015
  br i1 %.not44.i, label %ossl_asn1_time_from_tm.exit.thread, label %30

30:                                               ; preds = %29
  call void @ASN1_STRING_free(ptr noundef nonnull %.149.i) #8
  br label %ossl_asn1_time_from_tm.exit.thread

ossl_asn1_time_from_tm.exit:                      ; preds = %25
  %31 = add nsw i32 %27, 1900
  %32 = add nsw i32 %23, 1
  %33 = getelementptr inbounds nuw i8, ptr %4, i64 12
  %34 = load i32, ptr %33, align 4, !tbaa !20
  %35 = getelementptr inbounds nuw i8, ptr %4, i64 8
  %36 = load i32, ptr %35, align 8, !tbaa !23
  %37 = getelementptr inbounds nuw i8, ptr %4, i64 4
  %38 = load i32, ptr %37, align 4, !tbaa !24
  %39 = load i32, ptr %4, align 8, !tbaa !25
  %40 = call i32 (ptr, i64, ptr, ...) @BIO_snprintf(ptr noundef %21, i64 noundef 20, ptr noundef nonnull @.str.1, i32 noundef %31, i32 noundef %32, i32 noundef %34, i32 noundef %36, i32 noundef %38, i32 noundef %39) #8
  store i32 %40, ptr %.149.i, align 8, !tbaa !13
  br i1 %.not, label %ossl_asn1_time_from_tm.exit.thread, label %41

41:                                               ; preds = %ossl_asn1_time_from_tm.exit
  store ptr %.149.i, ptr %1, align 8, !tbaa !33
  br label %ossl_asn1_time_from_tm.exit.thread

ossl_asn1_time_from_tm.exit.thread:               ; preds = %6, %29, %30, %.thread, %ossl_asn1_time_from_tm.exit, %41, %ASN1_TIME_to_tm.exit
  %.011 = phi ptr [ null, %ASN1_TIME_to_tm.exit ], [ %.149.i, %41 ], [ %.149.i, %ossl_asn1_time_from_tm.exit ], [ null, %.thread ], [ null, %30 ], [ null, %29 ], [ null, %6 ]
  call void @llvm.lifetime.end.p0(i64 56, ptr nonnull %4) #8
  ret ptr %.011
}